target datalayout = "e-m:e-p270:32:32-p271:32:32-p272:64:64-i64:64-i128:128-f80:128-n8:16:32:64-S128"
target triple = "x86_64-pc-linux-gnu"

%struct.SN_env = type { ptr, i32, i32, i32, i32, i32, ptr, ptr }

@s_96 = internal constant [6 x i8] c"\CE\BF\CF\85\CF\83", align 1
@s_97 = internal constant [6 x i8] c"\CE\BF\CF\85\CF\83", align 1

; Function Attrs: nounwind uwtable
define internal i32 @r_step5h(ptr noundef %0) #0 {
  %2 = alloca i32, align 4
  %3 = alloca ptr, align 8
  %4 = alloca i32, align 4
  %5 = alloca i32, align 4
  %6 = alloca i32, align 4
  %7 = alloca i32, align 4
  %8 = alloca i32, align 4
  store ptr %0, ptr %3, align 8
  %9 = load ptr, ptr %3, align 8
  %10 = getelementptr inbounds nuw %struct.SN_env, ptr %9, i32 0, i32 1
  %11 = load i32, ptr %10, align 8
  %12 = load ptr, ptr %3, align 8
  %13 = getelementptr inbounds nuw %struct.SN_env, ptr %12, i32 0, i32 5
  store i32 %11, ptr %13, align 8
  %14 = load ptr, ptr %3, align 8
  %15 = call i32 @find_among_b(ptr noundef %14, ptr noundef @a_53, i32 noundef 3)
  %16 = icmp ne i32 %15, 0
  br i1 %16, label %18, label %17

17:                                               ; preds = %1
  store i32 0, ptr %2, align 4
  br label %116

18:                                               ; preds = %1
  %19 = load ptr, ptr %3, align 8
  %20 = getelementptr inbounds nuw %struct.SN_env, ptr %19, i32 0, i32 1
  %21 = load i32, ptr %20, align 8
  %22 = load ptr, ptr %3, align 8
  %23 = getelementptr inbounds nuw %struct.SN_env, ptr %22, i32 0, i32 4
  store i32 %21, ptr %23, align 4
  call void @llvm.lifetime.start.p0(i64 4, ptr %4) #3
  %24 = load ptr, ptr %3, align 8
  %25 = call i32 @slice_del(ptr noundef %24)
  store i32 %25, ptr %4, align 4
  %26 = load i32, ptr %4, align 4
  %27 = icmp slt i32 %26, 0
  br i1 %27, label %28, label %30

28:                                               ; preds = %18
  %29 = load i32, ptr %4, align 4
  store i32 %29, ptr %2, align 4
  store i32 1, ptr %5, align 4
  br label %31

30:                                               ; preds = %18
  store i32 0, ptr %5, align 4
  br label %31

31:                                               ; preds = %30, %28
  call void @llvm.lifetime.end.p0(i64 4, ptr %4) #3
  %32 = load i32, ptr %5, align 4
  switch i32 %32, label %118 [
    i32 0, label %33
    i32 1, label %116
  ]

33:                                               ; preds = %31
  %34 = load ptr, ptr %3, align 8
  %35 = getelementptr inbounds nuw %struct.SN_env, ptr %34, i32 0, i32 7
  %36 = load ptr, ptr %35, align 8
  %37 = getelementptr inbounds i32, ptr %36, i64 0
  store i32 0, ptr %37, align 4
  call void @llvm.lifetime.start.p0(i64 4, ptr %6) #3
  %38 = load ptr, ptr %3, align 8
  %39 = getelementptr inbounds nuw %struct.SN_env, ptr %38, i32 0, i32 2
  %40 = load i32, ptr %39, align 4
  %41 = load ptr, ptr %3, align 8
  %42 = getelementptr inbounds nuw %struct.SN_env, ptr %41, i32 0, i32 1
  %43 = load i32, ptr %42, align 8
  %44 = sub i32 %40, %43
  store i32 %44, ptr %6, align 4
  %45 = load ptr, ptr %3, align 8
  %46 = getelementptr inbounds nuw %struct.SN_env, ptr %45, i32 0, i32 1
  %47 = load i32, ptr %46, align 8
  %48 = load ptr, ptr %3, align 8
  %49 = getelementptr inbounds nuw %struct.SN_env, ptr %48, i32 0, i32 5
  store i32 %47, ptr %49, align 8
  %50 = load ptr, ptr %3, align 8
  %51 = getelementptr inbounds nuw %struct.SN_env, ptr %50, i32 0, i32 1
  %52 = load i32, ptr %51, align 8
  %53 = load ptr, ptr %3, align 8
  %54 = getelementptr inbounds nuw %struct.SN_env, ptr %53, i32 0, i32 4
  store i32 %52, ptr %54, align 4
  %55 = load ptr, ptr %3, align 8
  %56 = call i32 @find_among_b(ptr noundef %55, ptr noundef @a_51, i32 noundef 12)
  %57 = icmp ne i32 %56, 0
  br i1 %57, label %59, label %58

58:                                               ; preds = %33
  br label %70

59:                                               ; preds = %33
  call void @llvm.lifetime.start.p0(i64 4, ptr %7) #3
  %60 = load ptr, ptr %3, align 8
  %61 = call i32 @slice_from_s(ptr noundef %60, i32 noundef 6, ptr noundef @s_96)
  store i32 %61, ptr %7, align 4
  %62 = load i32, ptr %7, align 4
  %63 = icmp slt i32 %62, 0
  br i1 %63, label %64, label %66

64:                                               ; preds = %59
  %65 = load i32, ptr %7, align 4
  store i32 %65, ptr %2, align 4
  store i32 1, ptr %5, align 4
  br label %67

66:                                               ; preds = %59
  store i32 0, ptr %5, align 4
  br label %67

67:                                               ; preds = %66, %64
  call void @llvm.lifetime.end.p0(i64 4, ptr %7) #3
  %68 = load i32, ptr %5, align 4
  switch i32 %68, label %112 [
    i32 0, label %69
  ]

69:                                               ; preds = %67
  store i32 3, ptr %5, align 4
  br label %112

70:                                               ; preds = %58
  %71 = load ptr, ptr %3, align 8
  %72 = getelementptr inbounds nuw %struct.SN_env, ptr %71, i32 0, i32 2
  %73 = load i32, ptr %72, align 4
  %74 = load i32, ptr %6, align 4
  %75 = sub i32 %73, %74
  %76 = load ptr, ptr %3, align 8
  %77 = getelementptr inbounds nuw %struct.SN_env, ptr %76, i32 0, i32 1
  store i32 %75, ptr %77, align 8
  %78 = load ptr, ptr %3, align 8
  %79 = getelementptr inbounds nuw %struct.SN_env, ptr %78, i32 0, i32 1
  %80 = load i32, ptr %79, align 8
  %81 = load ptr, ptr %3, align 8
  %82 = getelementptr inbounds nuw %struct.SN_env, ptr %81, i32 0, i32 5
  store i32 %80, ptr %82, align 8
  %83 = load ptr, ptr %3, align 8
  %84 = getelementptr inbounds nuw %struct.SN_env, ptr %83, i32 0, i32 1
  %85 = load i32, ptr %84, align 8
  %86 = load ptr, ptr %3, align 8
  %87 = getelementptr inbounds nuw %struct.SN_env, ptr %86, i32 0, i32 4
  store i32 %85, ptr %87, align 4
  %88 = load ptr, ptr %3, align 8
  %89 = call i32 @find_among_b(ptr noundef %88, ptr noundef @a_52, i32 noundef 25)
  %90 = icmp ne i32 %89, 0
  br i1 %90, label %92, label %91

91:                                               ; preds = %70
  store i32 0, ptr %2, align 4
  store i32 1, ptr %5, align 4
  br label %112

92:                                               ; preds = %70
  %93 = load ptr, ptr %3, align 8
  %94 = getelementptr inbounds nuw %struct.SN_env, ptr %93, i32 0, i32 1
  %95 = load i32, ptr %94, align 8
  %96 = load ptr, ptr %3, align 8
  %97 = getelementptr inbounds nuw %struct.SN_env, ptr %96, i32 0, i32 3
  %98 = load i32, ptr %97, align 8
  %99 = icmp sgt i32 %95, %98
  br i1 %99, label %100, label %101

100:                                              ; preds = %92
  store i32 0, ptr %2, align 4
  store i32 1, ptr %5, align 4
  br label %112

101:                                              ; preds = %92
  call void @llvm.lifetime.start.p0(i64 4, ptr %8) #3
  %102 = load ptr, ptr %3, align 8
  %103 = call i32 @slice_from_s(ptr noundef %102, i32 noundef 6, ptr noundef @s_97)
  store i32 %103, ptr %8, align 4
  %104 = load i32, ptr %8, align 4
  %105 = icmp slt i32 %104, 0
  br i1 %105, label %106, label %108

106:                                              ; preds = %101
  %107 = load i32, ptr %8, align 4
  store i32 %107, ptr %2, align 4
  store i32 1, ptr %5, align 4
  br label %109

108:                                              ; preds = %101
  store i32 0, ptr %5, align 4
  br label %109

109:                                              ; preds = %108, %106
  call void @llvm.lifetime.end.p0(i64 4, ptr %8) #3
  %110 = load i32, ptr %5, align 4
  switch i32 %110, label %112 [
    i32 0, label %111
  ]

111:                                              ; preds = %109
  store i32 0, ptr %5, align 4
  br label %112

112:                                              ; preds = %69, %111, %109, %100, %91, %67
  call void @llvm.lifetime.end.p0(i64 4, ptr %6) #3
  %113 = load i32, ptr %5, align 4
  switch i32 %113, label %118 [
    i32 0, label %114
    i32 1, label %116
    i32 3, label %115
  ]

114:                                              ; preds = %112
  br label %115

115:                                              ; preds = %114, %112
  store i32 1, ptr %2, align 4
  br label %116

116:                                              ; preds = %115, %112, %31, %17
  %117 = load i32, ptr %2, align 4
  ret i32 %117

118:                                              ; preds = %112, %31
  unreachable
}