; Function Attrs: nounwind uwtable
define internal fastcc i32 @r_step5h(ptr noundef initializes((24, 28)) %0) unnamed_addr #0 {
  %2 = getelementptr inbounds nuw i8, ptr %0, i64 8
  %3 = load i32, ptr %2, align 8
  %4 = getelementptr inbounds nuw i8, ptr %0, i64 24
  store i32 %3, ptr %4, align 8
  %5 = tail call i32 @find_among_b(ptr noundef %0, ptr noundef nonnull @a_53, i32 noundef 3) #2
  %.not = icmp eq i32 %5, 0
  br i1 %.not, label %.thread55, label %6

6:                                                ; preds = %1
  %7 = load i32, ptr %2, align 8
  %8 = getelementptr inbounds nuw i8, ptr %0, i64 20
  store i32 %7, ptr %8, align 4
  %9 = tail call i32 @slice_del(ptr noundef nonnull %0) #2
  %10 = icmp sgt i32 %9, -1
  br i1 %10, label %11, label %.thread55

11:                                               ; preds = %6
  %12 = getelementptr inbounds nuw i8, ptr %0, i64 40
  %13 = load ptr, ptr %12, align 8
  store i32 0, ptr %13, align 4
  %14 = getelementptr inbounds nuw i8, ptr %0, i64 12
  %15 = load i32, ptr %14, align 4
  %16 = load i32, ptr %2, align 8
  store i32 %16, ptr %4, align 8
  store i32 %16, ptr %8, align 4
  %17 = tail call i32 @find_among_b(ptr noundef nonnull %0, ptr noundef nonnull @a_51, i32 noundef 12) #2
  %.not44 = icmp eq i32 %17, 0
  br i1 %.not44, label %21, label %18

18:                                               ; preds = %11
  %19 = tail call i32 @slice_from_s(ptr noundef nonnull %0, i32 noundef 6, ptr noundef nonnull @s_96) #2
  %20 = icmp sgt i32 %19, -1
  %spec.select = select i1 %20, i32 1, i32 %19
  br label %.thread55

21:                                               ; preds = %11
  %.neg = sub i32 %16, %15
  %22 = load i32, ptr %14, align 4
  %23 = add i32 %22, %.neg
  store i32 %23, ptr %2, align 8
  store i32 %23, ptr %4, align 8
  store i32 %23, ptr %8, align 4
  %24 = tail call i32 @find_among_b(ptr noundef nonnull %0, ptr noundef nonnull @a_52, i32 noundef 25) #2
  %.not45 = icmp eq i32 %24, 0
  br i1 %.not45, label %.thread55, label %25

25:                                               ; preds = %21
  %26 = load i32, ptr %2, align 8
  %27 = getelementptr inbounds nuw i8, ptr %0, i64 16
  %28 = load i32, ptr %27, align 8
  %29 = icmp sgt i32 %26, %28
  br i1 %29, label %.thread55, label %30

30:                                               ; preds = %25
  %31 = tail call i32 @slice_from_s(ptr noundef nonnull %0, i32 noundef 6, ptr noundef nonnull @s_97) #2
  %.fr = freeze i32 %31
  %switch = icmp slt i32 %.fr, 0
  %spec.select60 = select i1 %switch, i32 %.fr, i32 1
  br label %.thread55

.thread55:                                        ; preds = %30, %18, %25, %21, %6, %1
  %.0 = phi i32 [ %9, %6 ], [ 0, %1 ], [ 0, %25 ], [ 0, %21 ], [ %spec.select, %18 ], [ %spec.select60, %30 ]
  ret i32 %.0
}